; Function Attrs: mustprogress uwtable
define void @_ZN8QuantLib26ZeroInflationTermStructureC2ENS_4DateENS_9FrequencyERKNS_10DayCounterERKN5boost10shared_ptrINS_11SeasonalityEEE(ptr noundef nonnull align 8 dereferenceable(113) %this, ptr noundef %vtt, i64 %baseDate.coerce, i32 noundef %frequency, ptr nocapture noundef nonnull readonly align 8 dereferenceable(16) %dayCounter, ptr nocapture noundef nonnull readonly align 8 dereferenceable(16) %seasonality) unnamed_addr #3 align 2 personality ptr @__gxx_personality_v0 {
entry:
  %agg.tmp3 = alloca %"class.boost::shared_ptr.17", align 8
  %0 = load ptr, ptr %seasonality, align 8, !tbaa !20
  store ptr %0, ptr %agg.tmp3, align 8, !tbaa !20
  %pn.i = getelementptr inbounds nuw i8, ptr %agg.tmp3, i64 8
  %pn3.i = getelementptr inbounds nuw i8, ptr %seasonality, i64 8
  %1 = load ptr, ptr %pn3.i, align 8, !tbaa !16
  store ptr %1, ptr %pn.i, align 8, !tbaa !16
  %cmp.not.i.i = icmp eq ptr %1, null
  br i1 %cmp.not.i.i, label %invoke.cont, label %if.then.i.i

if.then.i.i:                                      ; preds = %entry
  %use_count_.i.i.i = getelementptr inbounds nuw i8, ptr %1, i64 8
  %2 = atomicrmw add ptr %use_count_.i.i.i, i32 1 monotonic, align 4
  br label %invoke.cont

invoke.cont:                                      ; preds = %if.then.i.i, %entry
  %3 = getelementptr inbounds i8, ptr %vtt, i64 8
  invoke void @_ZN8QuantLib22InflationTermStructureC2ENS_4DateENS_9FrequencyERKNS_10DayCounterEN5boost10shared_ptrINS_11SeasonalityEEEd(ptr noundef nonnull align 8 dereferenceable(113) %this, ptr noundef nonnull %3, i64 %baseDate.coerce, i32 noundef %frequency, ptr noundef nonnull align 8 dereferenceable(16) %dayCounter, ptr noundef nonnull %agg.tmp3, double noundef 0x47EFFFFFE0000000)
          to label %invoke.cont5 unwind label %lpad

invoke.cont5:                                     ; preds = %invoke.cont
  %4 = load ptr, ptr %pn.i, align 8, !tbaa !16
  %cmp.not.i.i2 = icmp eq ptr %4, null
  br i1 %cmp.not.i.i2, label %_ZN5boost10shared_ptrIN8QuantLib11SeasonalityEED2Ev.exit, label %if.then.i.i3

if.then.i.i3:                                     ; preds = %invoke.cont5
  %use_count_.i.i.i4 = getelementptr inbounds nuw i8, ptr %4, i64 8
  %5 = atomicrmw sub ptr %use_count_.i.i.i4, i32 1 acq_rel, align 4
  %cmp.i.i.i = icmp eq i32 %5, 1
  br i1 %cmp.i.i.i, label %if.then.i.i.i, label %_ZN5boost10shared_ptrIN8QuantLib11SeasonalityEED2Ev.exit

if.then.i.i.i:                                    ; preds = %if.then.i.i3
  %vtable.i.i.i = load ptr, ptr %4, align 8, !tbaa !14
  %vfn.i.i.i = getelementptr inbounds i8, ptr %vtable.i.i.i, i64 16
  %6 = load ptr, ptr %vfn.i.i.i, align 8
  invoke void %6(ptr noundef nonnull align 8 dereferenceable(16) %4)
          to label %.noexc.i.i unwind label %terminate.lpad.i.i

.noexc.i.i:                                       ; preds = %if.then.i.i.i
  %weak_count_.i.i.i.i = getelementptr inbounds nuw i8, ptr %4, i64 12
  %7 = atomicrmw sub ptr %weak_count_.i.i.i.i, i32 1 acq_rel, align 4
  %cmp.i.i.i.i = icmp eq i32 %7, 1
  br i1 %cmp.i.i.i.i, label %if.then.i.i.i.i, label %_ZN5boost10shared_ptrIN8QuantLib11SeasonalityEED2Ev.exit

if.then.i.i.i.i:                                  ; preds = %.noexc.i.i
  %vtable.i.i.i.i = load ptr, ptr %4, align 8, !tbaa !14
  %vfn.i.i.i.i = getelementptr inbounds i8, ptr %vtable.i.i.i.i, i64 24
  %8 = load ptr, ptr %vfn.i.i.i.i, align 8
  invoke void %8(ptr noundef nonnull align 8 dereferenceable(16) %4)
          to label %_ZN5boost10shared_ptrIN8QuantLib11SeasonalityEED2Ev.exit unwind label %terminate.lpad.i.i

terminate.lpad.i.i:                               ; preds = %if.then.i.i.i.i, %if.then.i.i.i
  %9 = landingpad { ptr, i32 }
          catch ptr null
  %10 = extractvalue { ptr, i32 } %9, 0
  tail call void @__clang_call_terminate(ptr %10) #19
  unreachable

_ZN5boost10shared_ptrIN8QuantLib11SeasonalityEED2Ev.exit: ; preds = %invoke.cont5, %if.then.i.i3, %.noexc.i.i, %if.then.i.i.i.i
  %11 = load ptr, ptr %vtt, align 8
  store ptr %11, ptr %this, align 8, !tbaa !14
  %12 = getelementptr inbounds i8, ptr %vtt, i64 56
  %13 = load ptr, ptr %12, align 8
  %vbase.offset.ptr = getelementptr i8, ptr %11, i64 -24
  %vbase.offset = load i64, ptr %vbase.offset.ptr, align 8
  %add.ptr = getelementptr inbounds i8, ptr %this, i64 %vbase.offset
  store ptr %13, ptr %add.ptr, align 8, !tbaa !14
  %14 = getelementptr inbounds i8, ptr %vtt, i64 64
  %15 = load ptr, ptr %14, align 8
  %vtable6 = load ptr, ptr %this, align 8, !tbaa !14
  %vbase.offset.ptr7 = getelementptr i8, ptr %vtable6, i64 -32
  %vbase.offset8 = load i64, ptr %vbase.offset.ptr7, align 8
  %add.ptr9 = getelementptr inbounds i8, ptr %this, i64 %vbase.offset8
  store ptr %15, ptr %add.ptr9, align 8, !tbaa !14
  ret void

lpad:                                             ; preds = %invoke.cont
  %16 = landingpad { ptr, i32 }
          cleanup
  call void @_ZN5boost10shared_ptrIN8QuantLib11SeasonalityEED2Ev(ptr noundef nonnull align 8 dereferenceable(16) %agg.tmp3) #18
  resume { ptr, i32 } %16
}